target datalayout = "e-m:e-p270:32:32-p271:32:32-p272:64:64-i64:64-i128:128-f80:128-n8:16:32:64-S128"
target triple = "x86_64-pc-linux-gnu"

%"class.base::time_internal::TimeBase" = type { i64 }

@_ZN4base4Time26kTimeTToMicrosecondsOffsetE = external constant i64, align 8

; Function Attrs: mustprogress nounwind uwtable
define linkonce_odr noundef i64 @_ZNSt14numeric_limitsIlE3maxEv() #1 comdat align 2 {
  ret i64 9223372036854775807
}

; Function Attrs: mustprogress nounwind uwtable
define linkonce_odr noundef zeroext i1 @_ZNK4base13time_internal8TimeBaseINS_4TimeEE6is_maxEv(ptr noundef nonnull align 8 dereferenceable(8) %0) #1 comdat align 2 {
  %2 = alloca ptr, align 8
  store ptr %0, ptr %2, align 8, !tbaa !26
  %3 = load ptr, ptr %2, align 8
  %4 = getelementptr inbounds nuw %"class.base::time_internal::TimeBase", ptr %3, i32 0, i32 0
  %5 = load i64, ptr %4, align 8, !tbaa !29
  %6 = call noundef i64 @_ZNSt14numeric_limitsIlE3maxEv() #12
  %7 = icmp eq i64 %5, %6
  ret i1 %7
}

; Function Attrs: mustprogress nounwind uwtable
define linkonce_odr noundef zeroext i1 @_ZNK4base13time_internal8TimeBaseINS_4TimeEE7is_nullEv(ptr noundef nonnull align 8 dereferenceable(8) %0) #1 comdat align 2 {
  %2 = alloca ptr, align 8
  store ptr %0, ptr %2, align 8, !tbaa !26
  %3 = load ptr, ptr %2, align 8
  %4 = getelementptr inbounds nuw %"class.base::time_internal::TimeBase", ptr %3, i32 0, i32 0
  %5 = load i64, ptr %4, align 8, !tbaa !29
  %6 = icmp eq i64 %5, 0
  ret i1 %6
}

; Function Attrs: mustprogress uwtable
define noundef i64 @_ZNK4base4Time10ToJavaTimeEv(ptr noundef nonnull align 8 dereferenceable(8) %0) #0 align 2 {
  %2 = alloca i64, align 8
  %3 = alloca ptr, align 8
  store ptr %0, ptr %3, align 8, !tbaa !24
  %4 = load ptr, ptr %3, align 8
  %5 = call noundef zeroext i1 @_ZNK4base13time_internal8TimeBaseINS_4TimeEE7is_nullEv(ptr noundef nonnull align 8 dereferenceable(8) %4)
  br i1 %5, label %6, label %7

6:                                                ; preds = %1
  store i64 0, ptr %2, align 8
  br label %17

7:                                                ; preds = %1
  %8 = call noundef zeroext i1 @_ZNK4base13time_internal8TimeBaseINS_4TimeEE6is_maxEv(ptr noundef nonnull align 8 dereferenceable(8) %4)
  br i1 %8, label %9, label %11

9:                                                ; preds = %7
  %10 = call noundef i64 @_ZNSt14numeric_limitsIlE3maxEv() #12
  store i64 %10, ptr %2, align 8
  br label %17

11:                                               ; preds = %7
  %12 = getelementptr inbounds nuw %"class.base::time_internal::TimeBase", ptr %4, i32 0, i32 0
  %13 = load i64, ptr %12, align 8, !tbaa !29
  %14 = load i64, ptr @_ZN4base4Time26kTimeTToMicrosecondsOffsetE, align 8, !tbaa !8
  %15 = sub nsw i64 %13, %14
  %16 = sdiv i64 %15, 1000
  store i64 %16, ptr %2, align 8
  br label %17

17:                                               ; preds = %11, %9, %6
  %18 = load i64, ptr %2, align 8
  ret i64 %18
}