; Function Attrs: mustprogress nofree norecurse nosync nounwind willreturn memory(argmem: read) uwtable
define noundef range(i64 -9223372036854775, -9223372036854775808) i64 @_ZNK4base4Time10ToJavaTimeEv(ptr noundef nonnull readonly align 8 captures(none) dereferenceable(8) %0) local_unnamed_addr #1 align 2 {
  %2 = load i64, ptr %0, align 8, !tbaa !9
  switch i64 %2, label %3 [
    i64 0, label %.fold.split
    i64 9223372036854775807, label %.fold.split
  ]

3:                                                ; preds = %1
  %4 = load i64, ptr @_ZN4base4Time26kTimeTToMicrosecondsOffsetE, align 8, !tbaa !8
  %5 = sub nsw i64 %2, %4
  %6 = sdiv i64 %5, 1000
  br label %.fold.split

.fold.split:                                      ; preds = %1, %1, %3
  %.0 = phi i64 [ %6, %3 ], [ %2, %1 ], [ %2, %1 ]
  ret i64 %.0
}